; Function Attrs: mustprogress nofree norecurse nosync nounwind willreturn memory(read, inaccessiblemem: none) uwtable
define noundef zeroext i1 @_ZNK10open_spiel9gin_rummy13GinRummyUtils13IsConsecutiveERKSt6vectorIiSaIiEE(ptr nocapture noundef nonnull readnone align 8 dereferenceable(120) %0, ptr nocapture noundef nonnull readonly align 8 dereferenceable(24) %1) local_unnamed_addr #7 align 2 {
  %3 = getelementptr inbounds nuw i8, ptr %1, i64 8
  %4 = load ptr, ptr %3, align 8
  %5 = load ptr, ptr %1, align 8
  %6 = ptrtoint ptr %4 to i64
  %7 = ptrtoint ptr %5 to i64
  %8 = sub i64 %6, %7
  %9 = ashr exact i64 %8, 2
  %invariant.gep = getelementptr i8, ptr %5, i64 -4
  %10 = icmp ult i64 %9, 2
  br i1 %10, label %._crit_edge, label %.lr.ph

.lr.ph:                                           ; preds = %2, %.lr.ph
  %indvars.iv = phi i64 [ %indvars.iv.next, %.lr.ph ], [ 1, %2 ]
  %11 = getelementptr inbounds i32, ptr %5, i64 %indvars.iv
  %12 = load i32, ptr %11, align 4
  %gep = getelementptr i32, ptr %invariant.gep, i64 %indvars.iv
  %13 = load i32, ptr %gep, align 4
  %14 = add nsw i32 %13, 1
  %.not = icmp eq i32 %12, %14
  %indvars.iv.next = add nuw i64 %indvars.iv, 1
  %exitcond.not = icmp ne i64 %indvars.iv.next, %9
  %or.cond.not = select i1 %.not, i1 %exitcond.not, i1 false
  br i1 %or.cond.not, label %.lr.ph, label %._crit_edge, !llvm.loop !19

._crit_edge:                                      ; preds = %.lr.ph, %2
  %.lcssa = phi i1 [ true, %2 ], [ %.not, %.lr.ph ]
  ret i1 %.lcssa
}